target datalayout = "e-m:e-p270:32:32-p271:32:32-p272:64:64-i64:64-i128:128-f80:128-n8:16:32:64-S128"
target triple = "x86_64-pc-linux-gnu"

%struct.mbedtls_entropy_context = type { %struct.mbedtls_md_context_t, i32, i32, [20 x %struct.mbedtls_entropy_source_state] }
%struct.mbedtls_md_context_t = type { ptr, ptr, ptr }
%struct.mbedtls_entropy_source_state = type { ptr, ptr, i64, i64, i32 }

; Function Attrs: nounwind uwtable
define internal i32 @entropy_update(ptr noundef %0, i8 noundef zeroext %1, ptr noundef %2, i64 noundef %3) #0 {
  %5 = alloca ptr, align 8
  %6 = alloca i8, align 1
  %7 = alloca ptr, align 8
  %8 = alloca i64, align 8
  %9 = alloca [2 x i8], align 1
  %10 = alloca [64 x i8], align 16
  %11 = alloca i64, align 8
  %12 = alloca ptr, align 8
  %13 = alloca i32, align 4
  store ptr %0, ptr %5, align 8, !tbaa !3
  store i8 %1, ptr %6, align 1, !tbaa !25
  store ptr %2, ptr %7, align 8, !tbaa !23
  store i64 %3, ptr %8, align 8, !tbaa !15
  call void @llvm.lifetime.start.p0(i64 2, ptr %9) #6
  call void @llvm.lifetime.start.p0(i64 64, ptr %10) #6
  call void @llvm.lifetime.start.p0(i64 8, ptr %11) #6
  %14 = load i64, ptr %8, align 8, !tbaa !15
  store i64 %14, ptr %11, align 8, !tbaa !15
  call void @llvm.lifetime.start.p0(i64 8, ptr %12) #6
  %15 = load ptr, ptr %7, align 8, !tbaa !23
  store ptr %15, ptr %12, align 8, !tbaa !23
  call void @llvm.lifetime.start.p0(i64 4, ptr %13) #6
  store i32 0, ptr %13, align 4, !tbaa !17
  %16 = load i64, ptr %11, align 8, !tbaa !15
  %17 = icmp ugt i64 %16, 64
  br i1 %17, label %18, label %28

18:                                               ; preds = %4
  %19 = call ptr @mbedtls_md_info_from_type(i32 noundef 11)
  %20 = load ptr, ptr %7, align 8, !tbaa !23
  %21 = load i64, ptr %8, align 8, !tbaa !15
  %22 = getelementptr inbounds [64 x i8], ptr %10, i64 0, i64 0
  %23 = call i32 @mbedtls_md(ptr noundef %19, ptr noundef %20, i64 noundef %21, ptr noundef %22)
  store i32 %23, ptr %13, align 4, !tbaa !17
  %24 = icmp ne i32 %23, 0
  br i1 %24, label %25, label %26

25:                                               ; preds = %18
  br label %70

26:                                               ; preds = %18
  %27 = getelementptr inbounds [64 x i8], ptr %10, i64 0, i64 0
  store ptr %27, ptr %12, align 8, !tbaa !23
  store i64 64, ptr %11, align 8, !tbaa !15
  br label %28

28:                                               ; preds = %26, %4
  %29 = load i8, ptr %6, align 1, !tbaa !25
  %30 = getelementptr inbounds [2 x i8], ptr %9, i64 0, i64 0
  store i8 %29, ptr %30, align 1, !tbaa !25
  %31 = load i64, ptr %11, align 8, !tbaa !15
  %32 = and i64 %31, 255
  %33 = trunc i64 %32 to i8
  %34 = getelementptr inbounds [2 x i8], ptr %9, i64 0, i64 1
  store i8 %33, ptr %34, align 1, !tbaa !25
  %35 = load ptr, ptr %5, align 8, !tbaa !3
  %36 = getelementptr inbounds nuw %struct.mbedtls_entropy_context, ptr %35, i32 0, i32 1
  %37 = load i32, ptr %36, align 8, !tbaa !13
  %38 = icmp eq i32 %37, 0
  br i1 %38, label %39, label %57

39:                                               ; preds = %28
  %40 = load ptr, ptr %5, align 8, !tbaa !3
  %41 = getelementptr inbounds nuw %struct.mbedtls_entropy_context, ptr %40, i32 0, i32 0
  %42 = call ptr @mbedtls_md_info_from_type(i32 noundef 11)
  %43 = call i32 @mbedtls_md_setup(ptr noundef %41, ptr noundef %42, i32 noundef 0)
  store i32 %43, ptr %13, align 4, !tbaa !17
  %44 = load i32, ptr %13, align 4, !tbaa !17
  %45 = icmp ne i32 %44, 0
  br i1 %45, label %46, label %47

46:                                               ; preds = %39
  br label %70

47:                                               ; preds = %39
  %48 = load ptr, ptr %5, align 8, !tbaa !3
  %49 = getelementptr inbounds nuw %struct.mbedtls_entropy_context, ptr %48, i32 0, i32 0
  %50 = call i32 @mbedtls_md_starts(ptr noundef %49)
  store i32 %50, ptr %13, align 4, !tbaa !17
  %51 = load i32, ptr %13, align 4, !tbaa !17
  %52 = icmp ne i32 %51, 0
  br i1 %52, label %53, label %54

53:                                               ; preds = %47
  br label %70

54:                                               ; preds = %47
  %55 = load ptr, ptr %5, align 8, !tbaa !3
  %56 = getelementptr inbounds nuw %struct.mbedtls_entropy_context, ptr %55, i32 0, i32 1
  store i32 1, ptr %56, align 8, !tbaa !13
  br label %57

57:                                               ; preds = %54, %28
  %58 = load ptr, ptr %5, align 8, !tbaa !3
  %59 = getelementptr inbounds nuw %struct.mbedtls_entropy_context, ptr %58, i32 0, i32 0
  %60 = getelementptr inbounds [2 x i8], ptr %9, i64 0, i64 0
  %61 = call i32 @mbedtls_md_update(ptr noundef %59, ptr noundef %60, i64 noundef 2)
  store i32 %61, ptr %13, align 4, !tbaa !17
  %62 = icmp ne i32 %61, 0
  br i1 %62, label %63, label %64

63:                                               ; preds = %57
  br label %70

64:                                               ; preds = %57
  %65 = load ptr, ptr %5, align 8, !tbaa !3
  %66 = getelementptr inbounds nuw %struct.mbedtls_entropy_context, ptr %65, i32 0, i32 0
  %67 = load ptr, ptr %12, align 8, !tbaa !23
  %68 = load i64, ptr %11, align 8, !tbaa !15
  %69 = call i32 @mbedtls_md_update(ptr noundef %66, ptr noundef %67, i64 noundef %68)
  store i32 %69, ptr %13, align 4, !tbaa !17
  br label %70

70:                                               ; preds = %64, %63, %53, %46, %25
  %71 = getelementptr inbounds [64 x i8], ptr %10, i64 0, i64 0
  call void @mbedtls_platform_zeroize(ptr noundef %71, i64 noundef 64)
  %72 = load i32, ptr %13, align 4, !tbaa !17
  call void @llvm.lifetime.end.p0(i64 4, ptr %13) #6
  call void @llvm.lifetime.end.p0(i64 8, ptr %12) #6
  call void @llvm.lifetime.end.p0(i64 8, ptr %11) #6
  call void @llvm.lifetime.end.p0(i64 64, ptr %10) #6
  call void @llvm.lifetime.end.p0(i64 2, ptr %9) #6
  ret i32 %72
}