; Function Attrs: nounwind uwtable
define internal fastcc i32 @entropy_update(ptr noundef %0, i8 noundef zeroext %1, ptr noundef %2, i64 noundef %3) unnamed_addr #0 {
  %5 = alloca [2 x i8], align 1
  %6 = alloca [64 x i8], align 16
  call void @llvm.lifetime.start.p0(i64 2, ptr nonnull %5) #10
  call void @llvm.lifetime.start.p0(i64 64, ptr nonnull %6) #10
  %7 = icmp ugt i64 %3, 64
  br i1 %7, label %8, label %11

8:                                                ; preds = %4
  %9 = tail call ptr @mbedtls_md_info_from_type(i32 noundef 11) #10
  %10 = call i32 @mbedtls_md(ptr noundef %9, ptr noundef %2, i64 noundef %3, ptr noundef nonnull %6) #10
  %.not = icmp eq i32 %10, 0
  br i1 %.not, label %11, label %27

11:                                               ; preds = %8, %4
  %.018 = phi i64 [ %3, %4 ], [ 64, %8 ]
  %.017 = phi ptr [ %2, %4 ], [ %6, %8 ]
  store i8 %1, ptr %5, align 1, !tbaa !18
  %12 = trunc nuw nsw i64 %.018 to i8
  %13 = getelementptr inbounds nuw i8, ptr %5, i64 1
  store i8 %12, ptr %13, align 1, !tbaa !18
  %14 = getelementptr inbounds nuw i8, ptr %0, i64 24
  %15 = load i32, ptr %14, align 8, !tbaa !3
  %16 = icmp eq i32 %15, 0
  br i1 %16, label %17, label %23

17:                                               ; preds = %11
  %18 = call ptr @mbedtls_md_info_from_type(i32 noundef 11) #10
  %19 = call i32 @mbedtls_md_setup(ptr noundef nonnull %0, ptr noundef %18, i32 noundef 0) #10
  %.not24 = icmp eq i32 %19, 0
  br i1 %.not24, label %20, label %27

20:                                               ; preds = %17
  %21 = call i32 @mbedtls_md_starts(ptr noundef nonnull %0) #10
  %.not25 = icmp eq i32 %21, 0
  br i1 %.not25, label %22, label %27

22:                                               ; preds = %20
  store i32 1, ptr %14, align 8, !tbaa !3
  br label %23

23:                                               ; preds = %22, %11
  %24 = call i32 @mbedtls_md_update(ptr noundef nonnull %0, ptr noundef nonnull %5, i64 noundef 2) #10
  %.not26 = icmp eq i32 %24, 0
  br i1 %.not26, label %25, label %27

25:                                               ; preds = %23
  %26 = call i32 @mbedtls_md_update(ptr noundef nonnull %0, ptr noundef %.017, i64 noundef %.018) #10
  br label %27

27:                                               ; preds = %23, %20, %17, %8, %25
  %.0 = phi i32 [ %10, %8 ], [ %19, %17 ], [ %21, %20 ], [ %24, %23 ], [ %26, %25 ]
  call void @mbedtls_platform_zeroize(ptr noundef nonnull %6, i64 noundef 64) #10
  call void @llvm.lifetime.end.p0(i64 64, ptr nonnull %6) #10
  call void @llvm.lifetime.end.p0(i64 2, ptr nonnull %5) #10
  ret i32 %.0
}